; Function Attrs: nounwind uwtable
define internal noundef i32 @OnUpdateBailBool(ptr nocapture readnone %0, ptr noundef %1, ptr noundef %2, ptr nocapture noundef writeonly %3, ptr nocapture readnone %4, i32 noundef %5) #0 {
  %7 = ptrtoint ptr %2 to i64
  %8 = getelementptr inbounds i8, ptr %3, i64 %7
  %9 = tail call zeroext i1 @zend_ini_parse_bool(ptr noundef %1) #8
  %10 = zext i1 %9 to i8
  store i8 %10, ptr %8, align 1
  switch i32 %5, label %11 [
    i32 8, label %php_must_emit_ini_deprecation.exit
    i32 2, label %php_must_emit_ini_deprecation.exit
    i32 64, label %php_must_emit_ini_deprecation.exit
  ]

11:                                               ; preds = %6
  br i1 %9, label %12, label %php_must_emit_ini_deprecation.exit

12:                                               ; preds = %11
  tail call void (ptr, i32, ptr, ...) @php_error_docref(ptr noundef null, i32 noundef 8192, ptr noundef nonnull @.str.11) #8
  br label %php_must_emit_ini_deprecation.exit

php_must_emit_ini_deprecation.exit:               ; preds = %6, %6, %6, %12, %11
  ret i32 0
}